target datalayout = "e-m:e-p270:32:32-p271:32:32-p272:64:64-i64:64-i128:128-f80:128-n8:16:32:64-S128"
target triple = "x86_64-pc-linux-gnu"

@bio_err = external global ptr, align 8

; Function Attrs: nounwind uwtable
define internal i32 @query_command(ptr noundef %0, ptr noundef %1, ptr noundef %2, ptr noundef %3, i32 noundef %4, i32 noundef %5, ptr noundef %6, ptr noundef %7, i32 noundef %8) #0 {
  %10 = alloca ptr, align 8
  %11 = alloca ptr, align 8
  %12 = alloca ptr, align 8
  %13 = alloca ptr, align 8
  %14 = alloca i32, align 4
  %15 = alloca i32, align 4
  %16 = alloca ptr, align 8
  %17 = alloca ptr, align 8
  %18 = alloca i32, align 4
  %19 = alloca i32, align 4
  %20 = alloca ptr, align 8
  %21 = alloca ptr, align 8
  %22 = alloca ptr, align 8
  %23 = alloca ptr, align 8
  store ptr %0, ptr %10, align 8, !tbaa !13
  store ptr %1, ptr %11, align 8, !tbaa !13
  store ptr %2, ptr %12, align 8, !tbaa !15
  store ptr %3, ptr %13, align 8, !tbaa !13
  store i32 %4, ptr %14, align 4, !tbaa !4
  store i32 %5, ptr %15, align 4, !tbaa !4
  store ptr %6, ptr %16, align 8, !tbaa !13
  store ptr %7, ptr %17, align 8, !tbaa !13
  store i32 %8, ptr %18, align 4, !tbaa !4
  call void @llvm.lifetime.start.p0(i64 4, ptr %19) #4
  store i32 0, ptr %19, align 4, !tbaa !4
  call void @llvm.lifetime.start.p0(i64 8, ptr %20) #4
  store ptr null, ptr %20, align 8, !tbaa !24
  call void @llvm.lifetime.start.p0(i64 8, ptr %21) #4
  store ptr null, ptr %21, align 8, !tbaa !19
  call void @llvm.lifetime.start.p0(i64 8, ptr %22) #4
  store ptr null, ptr %22, align 8, !tbaa !19
  call void @llvm.lifetime.start.p0(i64 8, ptr %23) #4
  store ptr null, ptr %23, align 8, !tbaa !19
  %24 = load ptr, ptr %16, align 8, !tbaa !13
  %25 = icmp ne ptr %24, null
  br i1 %25, label %26, label %34

26:                                               ; preds = %9
  %27 = load ptr, ptr %16, align 8, !tbaa !13
  %28 = call ptr @bio_open_default(ptr noundef %27, i8 noundef signext 114, i32 noundef 4)
  store ptr %28, ptr %21, align 8, !tbaa !19
  %29 = icmp eq ptr %28, null
  br i1 %29, label %30, label %31

30:                                               ; preds = %26
  br label %82

31:                                               ; preds = %26
  %32 = load ptr, ptr %21, align 8, !tbaa !19
  %33 = call ptr @d2i_TS_REQ_bio(ptr noundef %32, ptr noundef null)
  store ptr %33, ptr %20, align 8, !tbaa !24
  br label %50

34:                                               ; preds = %9
  %35 = load ptr, ptr %11, align 8, !tbaa !13
  %36 = icmp eq ptr %35, null
  br i1 %36, label %37, label %42

37:                                               ; preds = %34
  %38 = load ptr, ptr %10, align 8, !tbaa !13
  %39 = call ptr @bio_open_default(ptr noundef %38, i8 noundef signext 114, i32 noundef 4)
  store ptr %39, ptr %22, align 8, !tbaa !19
  %40 = icmp eq ptr %39, null
  br i1 %40, label %41, label %42

41:                                               ; preds = %37
  br label %82

42:                                               ; preds = %37, %34
  %43 = load ptr, ptr %22, align 8, !tbaa !19
  %44 = load ptr, ptr %11, align 8, !tbaa !13
  %45 = load ptr, ptr %12, align 8, !tbaa !15
  %46 = load ptr, ptr %13, align 8, !tbaa !13
  %47 = load i32, ptr %14, align 4, !tbaa !4
  %48 = load i32, ptr %15, align 4, !tbaa !4
  %49 = call ptr @create_query(ptr noundef %43, ptr noundef %44, ptr noundef %45, ptr noundef %46, i32 noundef %47, i32 noundef %48)
  store ptr %49, ptr %20, align 8, !tbaa !24
  br label %50

50:                                               ; preds = %42, %31
  %51 = load ptr, ptr %20, align 8, !tbaa !24
  %52 = icmp eq ptr %51, null
  br i1 %52, label %53, label %54

53:                                               ; preds = %50
  br label %82

54:                                               ; preds = %50
  %55 = load i32, ptr %18, align 4, !tbaa !4
  %56 = icmp ne i32 %55, 0
  br i1 %56, label %57, label %69

57:                                               ; preds = %54
  %58 = load ptr, ptr %17, align 8, !tbaa !13
  %59 = call ptr @bio_open_default(ptr noundef %58, i8 noundef signext 119, i32 noundef 32769)
  store ptr %59, ptr %23, align 8, !tbaa !19
  %60 = icmp eq ptr %59, null
  br i1 %60, label %61, label %62

61:                                               ; preds = %57
  br label %82

62:                                               ; preds = %57
  %63 = load ptr, ptr %23, align 8, !tbaa !19
  %64 = load ptr, ptr %20, align 8, !tbaa !24
  %65 = call i32 @TS_REQ_print_bio(ptr noundef %63, ptr noundef %64)
  %66 = icmp ne i32 %65, 0
  br i1 %66, label %68, label %67

67:                                               ; preds = %62
  br label %82

68:                                               ; preds = %62
  br label %81

69:                                               ; preds = %54
  %70 = load ptr, ptr %17, align 8, !tbaa !13
  %71 = call ptr @bio_open_default(ptr noundef %70, i8 noundef signext 119, i32 noundef 4)
  store ptr %71, ptr %23, align 8, !tbaa !19
  %72 = icmp eq ptr %71, null
  br i1 %72, label %73, label %74

73:                                               ; preds = %69
  br label %82

74:                                               ; preds = %69
  %75 = load ptr, ptr %23, align 8, !tbaa !19
  %76 = load ptr, ptr %20, align 8, !tbaa !24
  %77 = call i32 @i2d_TS_REQ_bio(ptr noundef %75, ptr noundef %76)
  %78 = icmp ne i32 %77, 0
  br i1 %78, label %80, label %79

79:                                               ; preds = %74
  br label %82

80:                                               ; preds = %74
  br label %81

81:                                               ; preds = %80, %68
  store i32 1, ptr %19, align 4, !tbaa !4
  br label %82

82:                                               ; preds = %81, %79, %73, %67, %61, %53, %41, %30
  %83 = load ptr, ptr @bio_err, align 8, !tbaa !19
  call void @ERR_print_errors(ptr noundef %83)
  %84 = load ptr, ptr %21, align 8, !tbaa !19
  call void @BIO_free_all(ptr noundef %84)
  %85 = load ptr, ptr %22, align 8, !tbaa !19
  call void @BIO_free_all(ptr noundef %85)
  %86 = load ptr, ptr %23, align 8, !tbaa !19
  call void @BIO_free_all(ptr noundef %86)
  %87 = load ptr, ptr %20, align 8, !tbaa !24
  call void @TS_REQ_free(ptr noundef %87)
  %88 = load i32, ptr %19, align 4, !tbaa !4
  call void @llvm.lifetime.end.p0(i64 8, ptr %23) #4
  call void @llvm.lifetime.end.p0(i64 8, ptr %22) #4
  call void @llvm.lifetime.end.p0(i64 8, ptr %21) #4
  call void @llvm.lifetime.end.p0(i64 8, ptr %20) #4
  call void @llvm.lifetime.end.p0(i64 4, ptr %19) #4
  ret i32 %88
}