; Function Attrs: nounwind uwtable
define internal fastcc range(i32 0, 2) i32 @query_command(ptr noundef %0, ptr noundef %1, ptr noundef %2, ptr noundef %3, i32 noundef range(i32 0, 2) %4, i32 noundef range(i32 0, 2) %5, ptr noundef %6, ptr noundef %7, i32 noundef range(i32 0, 2) %8) unnamed_addr #0 {
  %.not = icmp eq ptr %6, null
  br i1 %.not, label %15, label %10

10:                                               ; preds = %9
  %11 = tail call ptr @bio_open_default(ptr noundef nonnull %6, i8 noundef signext 114, i32 noundef 4) #7
  %12 = icmp eq ptr %11, null
  br i1 %12, label %36, label %13

13:                                               ; preds = %10
  %14 = tail call ptr @d2i_TS_REQ_bio(ptr noundef nonnull %11, ptr noundef null) #7
  br label %22

15:                                               ; preds = %9
  %16 = icmp eq ptr %1, null
  br i1 %16, label %18, label %.split

.split:                                           ; preds = %15
  %17 = tail call fastcc ptr @create_query(ptr noundef null, ptr noundef nonnull %1, ptr noundef %2, ptr noundef %3, i32 noundef %4, i32 noundef %5)
  br label %22

18:                                               ; preds = %15
  %19 = tail call ptr @bio_open_default(ptr noundef %0, i8 noundef signext 114, i32 noundef 4) #7
  %20 = icmp eq ptr %19, null
  br i1 %20, label %36, label %.split30

.split30:                                         ; preds = %18
  %21 = tail call fastcc ptr @create_query(ptr noundef nonnull %19, ptr noundef null, ptr noundef %2, ptr noundef %3, i32 noundef %4, i32 noundef %5)
  br label %22

22:                                               ; preds = %.split, %.split30, %13
  %.128 = phi ptr [ %14, %13 ], [ %17, %.split ], [ %21, %.split30 ]
  %.126 = phi ptr [ %11, %13 ], [ null, %.split ], [ null, %.split30 ]
  %.124 = phi ptr [ null, %13 ], [ null, %.split ], [ %19, %.split30 ]
  %23 = icmp eq ptr %.128, null
  br i1 %23, label %36, label %24

24:                                               ; preds = %22
  %.not41 = icmp eq i32 %8, 0
  br i1 %.not41, label %30, label %25

25:                                               ; preds = %24
  %26 = tail call ptr @bio_open_default(ptr noundef %7, i8 noundef signext 119, i32 noundef 32769) #7
  %27 = icmp eq ptr %26, null
  br i1 %27, label %36, label %28

28:                                               ; preds = %25
  %29 = tail call i32 @TS_REQ_print_bio(ptr noundef nonnull %26, ptr noundef nonnull %.128) #7
  %.not43 = icmp eq i32 %29, 0
  br i1 %.not43, label %36, label %35

30:                                               ; preds = %24
  %31 = tail call ptr @bio_open_default(ptr noundef %7, i8 noundef signext 119, i32 noundef 4) #7
  %32 = icmp eq ptr %31, null
  br i1 %32, label %36, label %33

33:                                               ; preds = %30
  %34 = tail call i32 @i2d_TS_REQ_bio(ptr noundef nonnull %31, ptr noundef nonnull %.128) #7
  %.not42 = icmp eq i32 %34, 0
  br i1 %.not42, label %36, label %35

35:                                               ; preds = %33, %28
  %.1 = phi ptr [ %26, %28 ], [ %31, %33 ]
  br label %36

36:                                               ; preds = %33, %30, %28, %25, %22, %18, %10, %35
  %.029 = phi i32 [ 0, %10 ], [ 0, %22 ], [ 0, %25 ], [ 1, %35 ], [ 0, %28 ], [ 0, %30 ], [ 0, %33 ], [ 0, %18 ]
  %.027 = phi ptr [ null, %10 ], [ null, %22 ], [ %.128, %25 ], [ %.128, %35 ], [ %.128, %28 ], [ %.128, %30 ], [ %.128, %33 ], [ null, %18 ]
  %.025 = phi ptr [ null, %10 ], [ %.126, %22 ], [ %.126, %25 ], [ %.126, %35 ], [ %.126, %28 ], [ %.126, %30 ], [ %.126, %33 ], [ null, %18 ]
  %.023 = phi ptr [ null, %10 ], [ %.124, %22 ], [ %.124, %25 ], [ %.124, %35 ], [ %.124, %28 ], [ %.124, %30 ], [ %.124, %33 ], [ null, %18 ]
  %.0 = phi ptr [ null, %10 ], [ null, %22 ], [ null, %25 ], [ %.1, %35 ], [ %26, %28 ], [ null, %30 ], [ %31, %33 ], [ null, %18 ]
  %37 = load ptr, ptr @bio_err, align 8, !tbaa !11
  tail call void @ERR_print_errors(ptr noundef %37) #7
  tail call void @BIO_free_all(ptr noundef %.025) #7
  tail call void @BIO_free_all(ptr noundef %.023) #7
  tail call void @BIO_free_all(ptr noundef %.0) #7
  tail call void @TS_REQ_free(ptr noundef %.027) #7
  ret i32 %.029
}